target datalayout = "e-m:e-p270:32:32-p271:32:32-p272:64:64-i64:64-i128:128-f80:128-n8:16:32:64-S128"
target triple = "x86_64-pc-linux-gnu"

%struct._zend_fiber_stack = type { ptr, i64 }
%struct._zend_fiber_context = type { ptr, ptr, ptr, ptr, ptr, i32, ptr, [6 x ptr] }

@zend_fiber_get_page_size.page_size = internal global i64 0, align 8

; Function Attrs: nounwind uwtable
define internal i64 @zend_fiber_get_page_size() #0 {
  %1 = load i64, ptr @zend_fiber_get_page_size.page_size, align 8, !tbaa !44
  %2 = icmp ne i64 %1, 0
  br i1 %2, label %15, label %3

3:                                                ; preds = %0
  %4 = call i64 @zend_get_page_size()
  store i64 %4, ptr @zend_fiber_get_page_size.page_size, align 8, !tbaa !44
  %5 = load i64, ptr @zend_fiber_get_page_size.page_size, align 8, !tbaa !44
  %6 = icmp ne i64 %5, 0
  br i1 %6, label %7, label %13

7:                                                ; preds = %3
  %8 = load i64, ptr @zend_fiber_get_page_size.page_size, align 8, !tbaa !44
  %9 = load i64, ptr @zend_fiber_get_page_size.page_size, align 8, !tbaa !44
  %10 = sub i64 %9, 1
  %11 = and i64 %8, %10
  %12 = icmp ne i64 %11, 0
  br i1 %12, label %13, label %14

13:                                               ; preds = %7, %3
  store i64 4096, ptr @zend_fiber_get_page_size.page_size, align 8, !tbaa !44
  br label %14

14:                                               ; preds = %13, %7
  br label %15

15:                                               ; preds = %14, %0
  %16 = load i64, ptr @zend_fiber_get_page_size.page_size, align 8, !tbaa !44
  ret i64 %16
}

; Function Attrs: nounwind uwtable
define internal void @zend_fiber_stack_free(ptr noundef %0) #0 {
  %2 = alloca ptr, align 8
  %3 = alloca i64, align 8
  %4 = alloca ptr, align 8
  store ptr %0, ptr %2, align 8, !tbaa !4
  call void @llvm.lifetime.start.p0(i64 8, ptr %3) #18
  %5 = call i64 @zend_fiber_get_page_size()
  store i64 %5, ptr %3, align 8, !tbaa !44
  call void @llvm.lifetime.start.p0(i64 8, ptr %4) #18
  %6 = load ptr, ptr %2, align 8, !tbaa !4
  %7 = getelementptr inbounds nuw %struct._zend_fiber_stack, ptr %6, i32 0, i32 0
  %8 = load ptr, ptr %7, align 8, !tbaa !45
  %9 = ptrtoint ptr %8 to i64
  %10 = load i64, ptr %3, align 8, !tbaa !44
  %11 = mul i64 1, %10
  %12 = sub i64 %9, %11
  %13 = inttoptr i64 %12 to ptr
  store ptr %13, ptr %4, align 8, !tbaa !50
  %14 = load ptr, ptr %4, align 8, !tbaa !50
  %15 = load ptr, ptr %2, align 8, !tbaa !4
  %16 = getelementptr inbounds nuw %struct._zend_fiber_stack, ptr %15, i32 0, i32 1
  %17 = load i64, ptr %16, align 8, !tbaa !47
  %18 = load i64, ptr %3, align 8, !tbaa !44
  %19 = mul i64 1, %18
  %20 = add i64 %17, %19
  %21 = call i32 @munmap(ptr noundef %14, i64 noundef %20) #18
  %22 = load ptr, ptr %2, align 8, !tbaa !4
  call void @_efree(ptr noundef %22)
  call void @llvm.lifetime.end.p0(i64 8, ptr %4) #18
  call void @llvm.lifetime.end.p0(i64 8, ptr %3) #18
  ret void
}

; Function Attrs: nounwind uwtable
define dso_local void @zend_fiber_destroy_context(ptr noundef %0) #0 {
  %2 = alloca ptr, align 8
  store ptr %0, ptr %2, align 8, !tbaa !49
  %3 = load ptr, ptr %2, align 8, !tbaa !49
  call void @zend_observer_fiber_destroy_notify(ptr noundef %3)
  %4 = load ptr, ptr %2, align 8, !tbaa !49
  %5 = getelementptr inbounds nuw %struct._zend_fiber_context, ptr %4, i32 0, i32 3
  %6 = load ptr, ptr %5, align 8, !tbaa !66
  %7 = icmp ne ptr %6, null
  br i1 %7, label %8, label %13

8:                                                ; preds = %1
  %9 = load ptr, ptr %2, align 8, !tbaa !49
  %10 = getelementptr inbounds nuw %struct._zend_fiber_context, ptr %9, i32 0, i32 3
  %11 = load ptr, ptr %10, align 8, !tbaa !66
  %12 = load ptr, ptr %2, align 8, !tbaa !49
  call void %11(ptr noundef %12)
  br label %13

13:                                               ; preds = %8, %1
  %14 = load ptr, ptr %2, align 8, !tbaa !49
  %15 = getelementptr inbounds nuw %struct._zend_fiber_context, ptr %14, i32 0, i32 4
  %16 = load ptr, ptr %15, align 8, !tbaa !51
  call void @zend_fiber_stack_free(ptr noundef %16)
  ret void
}