; Function Attrs: nounwind uwtable
define dso_local void @zend_fiber_destroy_context(ptr noundef %0) local_unnamed_addr #7 {
  tail call void @zend_observer_fiber_destroy_notify(ptr noundef %0) #22
  %2 = getelementptr inbounds nuw i8, ptr %0, i64 24
  %3 = load ptr, ptr %2, align 8, !tbaa !59
  %.not = icmp eq ptr %3, null
  br i1 %.not, label %5, label %4

4:                                                ; preds = %1
  tail call void %3(ptr noundef nonnull %0) #22
  br label %5

5:                                                ; preds = %4, %1
  %6 = getelementptr inbounds nuw i8, ptr %0, i64 32
  %7 = load ptr, ptr %6, align 8, !tbaa !47
  %8 = load i64, ptr @zend_fiber_get_page_size.page_size, align 8, !tbaa !46
  %.not.i.i = icmp eq i64 %8, 0
  br i1 %.not.i.i, label %9, label %zend_fiber_stack_free.exit

9:                                                ; preds = %5
  %10 = tail call i64 @zend_get_page_size() #22
  %11 = tail call range(i64 0, 65) i64 @llvm.ctpop.i64(i64 %10)
  %or.cond.i.i = icmp eq i64 %11, 1
  %spec.store.select.i.i = select i1 %or.cond.i.i, i64 %10, i64 4096
  store i64 %spec.store.select.i.i, ptr @zend_fiber_get_page_size.page_size, align 8
  br label %zend_fiber_stack_free.exit

zend_fiber_stack_free.exit:                       ; preds = %5, %9
  %12 = phi i64 [ %spec.store.select.i.i, %9 ], [ %8, %5 ]
  %13 = load ptr, ptr %7, align 8, !tbaa !42
  %14 = ptrtoint ptr %13 to i64
  %15 = sub i64 %14, %12
  %16 = inttoptr i64 %15 to ptr
  %17 = getelementptr inbounds nuw i8, ptr %7, i64 8
  %18 = load i64, ptr %17, align 8, !tbaa !44
  %19 = add i64 %18, %12
  %20 = tail call i32 @munmap(ptr noundef %16, i64 noundef %19) #22
  tail call void @_efree(ptr noundef nonnull %7) #22
  ret void
}